target datalayout = "e-m:e-p270:32:32-p271:32:32-p272:64:64-i64:64-i128:128-f80:128-n8:16:32:64-S128"
target triple = "x86_64-pc-linux-gnu"

%"class.clang::SourceLocation" = type { i32 }
%"class.clang::SourceRange" = type { %"class.clang::SourceLocation", %"class.clang::SourceLocation" }
%"class.llvm::SmallVectorBase" = type { ptr, i32, i32 }
%"class.llvm::SmallVectorImpl.348" = type { %"class.llvm::SmallVectorTemplateBase.349" }
%"class.llvm::SmallVectorTemplateBase.349" = type { %"class.llvm::SmallVectorTemplateCommon.350" }
%"class.llvm::SmallVectorTemplateCommon.350" = type { %"class.llvm::SmallVectorBase" }
%"class.clang::AttributePool" = type { ptr, %"class.llvm::SmallVector.352" }
%"class.llvm::SmallVector.352" = type { %"class.llvm::SmallVectorImpl.348", %"struct.llvm::SmallVectorStorage.353" }
%"struct.llvm::SmallVectorStorage.353" = type { [48 x i8] }
%class.anon = type { ptr }
%"class.clang::ParsedAttributesView" = type { %"class.clang::SourceRange", %"class.llvm::SmallVector.352" }

; Function Attrs: mustprogress nounwind uwtable
define linkonce_odr noundef ptr @_ZSt3endIN4llvm11SmallVectorIPN5clang10ParsedAttrELj6EEEEDTcldtfp_3endEERT_(ptr noundef nonnull align 8 dereferenceable(64) %0) #0 comdat {
  %2 = alloca ptr, align 8
  store ptr %0, ptr %2, align 8
  %3 = load ptr, ptr %2, align 8
  %4 = call noundef ptr @_ZN4llvm25SmallVectorTemplateCommonIPN5clang10ParsedAttrEvE3endEv(ptr noundef nonnull align 8 dereferenceable(16) %3)
  ret ptr %4
}

; Function Attrs: mustprogress nounwind uwtable
define linkonce_odr noundef ptr @_ZSt5beginIN4llvm11SmallVectorIPN5clang10ParsedAttrELj6EEEEDTcldtfp_5beginEERT_(ptr noundef nonnull align 8 dereferenceable(64) %0) #0 comdat {
  %2 = alloca ptr, align 8
  store ptr %0, ptr %2, align 8
  %3 = load ptr, ptr %2, align 8
  %4 = call noundef ptr @_ZN4llvm25SmallVectorTemplateCommonIPN5clang10ParsedAttrEvE5beginEv(ptr noundef nonnull align 8 dereferenceable(16) %3)
  ret ptr %4
}

; Function Attrs: mustprogress nounwind uwtable
define internal void @"_ZZN5clang13AttributePool8takeFromERNS_20ParsedAttributesViewERS0_ENK3$_0clEPNS_10ParsedAttrE"(ptr noundef nonnull align 8 dereferenceable(8) %0, ptr noundef %1) #0 align 2 {
  %3 = alloca ptr, align 8
  %4 = alloca ptr, align 8
  store ptr %0, ptr %3, align 8
  store ptr %1, ptr %4, align 8
  %5 = load ptr, ptr %3, align 8
  %6 = getelementptr inbounds nuw %class.anon, ptr %5, i32 0, i32 0
  %7 = load ptr, ptr %6, align 8
  %8 = load ptr, ptr %4, align 8
  call void @_ZN5clang13AttributePool6removeEPNS_10ParsedAttrE(ptr noundef nonnull align 8 dereferenceable(72) %7, ptr noundef %8)
  ret void
}

; Function Attrs: mustprogress nounwind uwtable
define linkonce_odr hidden noundef ptr @_ZN4llvm10adl_detail8end_implIRNS_11SmallVectorIPN5clang10ParsedAttrELj6EEEEEDTcl3endclsr3stdE7forwardIT_Efp_EEEOS8_(ptr noundef nonnull align 8 dereferenceable(64) %0) #0 comdat {
  %2 = alloca ptr, align 8
  store ptr %0, ptr %2, align 8
  %3 = load ptr, ptr %2, align 8
  %4 = call noundef ptr @_ZSt3endIN4llvm11SmallVectorIPN5clang10ParsedAttrELj6EEEEDTcldtfp_3endEERT_(ptr noundef nonnull align 8 dereferenceable(64) %3)
  ret ptr %4
}

; Function Attrs: mustprogress nounwind uwtable
define linkonce_odr hidden noundef ptr @_ZN4llvm10adl_detail10begin_implIRNS_11SmallVectorIPN5clang10ParsedAttrELj6EEEEEDTcl5beginclsr3stdE7forwardIT_Efp_EEEOS8_(ptr noundef nonnull align 8 dereferenceable(64) %0) #0 comdat {
  %2 = alloca ptr, align 8
  store ptr %0, ptr %2, align 8
  %3 = load ptr, ptr %2, align 8
  %4 = call noundef ptr @_ZSt5beginIN4llvm11SmallVectorIPN5clang10ParsedAttrELj6EEEEDTcldtfp_5beginEERT_(ptr noundef nonnull align 8 dereferenceable(64) %3)
  ret ptr %4
}

; Function Attrs: mustprogress nounwind uwtable
define internal ptr @"_ZSt8for_eachIPPN5clang10ParsedAttrEZNS0_13AttributePool8takeFromERNS0_20ParsedAttributesViewERS4_E3$_0ET0_T_SA_S9_"(ptr noundef %0, ptr noundef %1, ptr %2) #0 {
  %4 = alloca %class.anon, align 8
  %5 = alloca %class.anon, align 8
  %6 = alloca ptr, align 8
  %7 = alloca ptr, align 8
  %8 = getelementptr inbounds nuw %class.anon, ptr %5, i32 0, i32 0
  store ptr %2, ptr %8, align 8
  store ptr %0, ptr %6, align 8
  store ptr %1, ptr %7, align 8
  br label %9

9:                                                ; preds = %16, %3
  %10 = load ptr, ptr %6, align 8
  %11 = load ptr, ptr %7, align 8
  %12 = icmp ne ptr %10, %11
  br i1 %12, label %13, label %19

13:                                               ; preds = %9
  %14 = load ptr, ptr %6, align 8
  %15 = load ptr, ptr %14, align 8
  call void @"_ZZN5clang13AttributePool8takeFromERNS_20ParsedAttributesViewERS0_ENK3$_0clEPNS_10ParsedAttrE"(ptr noundef nonnull align 8 dereferenceable(8) %5, ptr noundef %15)
  br label %16

16:                                               ; preds = %13
  %17 = load ptr, ptr %6, align 8
  %18 = getelementptr inbounds ptr, ptr %17, i32 1
  store ptr %18, ptr %6, align 8
  br label %9, !llvm.loop !13

19:                                               ; preds = %9
  call void @llvm.memcpy.p0.p0.i64(ptr align 8 %4, ptr align 8 %5, i64 8, i1 false)
  %20 = getelementptr inbounds nuw %class.anon, ptr %4, i32 0, i32 0
  %21 = load ptr, ptr %20, align 8
  ret ptr %21
}

; Function Attrs: mustprogress nounwind uwtable
define linkonce_odr hidden noundef ptr @_ZN4llvm7adl_endIRNS_11SmallVectorIPN5clang10ParsedAttrELj6EEEEEDTclsr10adl_detailE8end_implclsr3stdE7forwardIT_Efp_EEEOS7_(ptr noundef nonnull align 8 dereferenceable(64) %0) #0 comdat {
  %2 = alloca ptr, align 8
  store ptr %0, ptr %2, align 8
  %3 = load ptr, ptr %2, align 8
  %4 = call noundef ptr @_ZN4llvm10adl_detail8end_implIRNS_11SmallVectorIPN5clang10ParsedAttrELj6EEEEEDTcl3endclsr3stdE7forwardIT_Efp_EEEOS8_(ptr noundef nonnull align 8 dereferenceable(64) %3)
  ret ptr %4
}

; Function Attrs: mustprogress nounwind uwtable
define linkonce_odr hidden noundef ptr @_ZN4llvm9adl_beginIRNS_11SmallVectorIPN5clang10ParsedAttrELj6EEEEEDTclsr10adl_detailE10begin_implclsr3stdE7forwardIT_Efp_EEEOS7_(ptr noundef nonnull align 8 dereferenceable(64) %0) #0 comdat {
  %2 = alloca ptr, align 8
  store ptr %0, ptr %2, align 8
  %3 = load ptr, ptr %2, align 8
  %4 = call noundef ptr @_ZN4llvm10adl_detail10begin_implIRNS_11SmallVectorIPN5clang10ParsedAttrELj6EEEEEDTcl5beginclsr3stdE7forwardIT_Efp_EEEOS8_(ptr noundef nonnull align 8 dereferenceable(64) %3)
  ret ptr %4
}

; Function Attrs: mustprogress nounwind uwtable
define linkonce_odr hidden noundef ptr @_ZN4llvm25SmallVectorTemplateCommonIPN5clang10ParsedAttrEvE5beginEv(ptr noundef nonnull align 8 dereferenceable(16) %0) #0 comdat align 2 {
  %2 = alloca ptr, align 8
  store ptr %0, ptr %2, align 8
  %3 = load ptr, ptr %2, align 8
  %4 = getelementptr inbounds nuw %"class.llvm::SmallVectorBase", ptr %3, i32 0, i32 0
  %5 = load ptr, ptr %4, align 8
  ret ptr %5
}

; Function Attrs: mustprogress nounwind uwtable
define linkonce_odr hidden noundef ptr @_ZN4llvm25SmallVectorTemplateCommonIPN5clang10ParsedAttrEvE3endEv(ptr noundef nonnull align 8 dereferenceable(16) %0) #0 comdat align 2 {
  %2 = alloca ptr, align 8
  store ptr %0, ptr %2, align 8
  %3 = load ptr, ptr %2, align 8
  %4 = call noundef ptr @_ZN4llvm25SmallVectorTemplateCommonIPN5clang10ParsedAttrEvE5beginEv(ptr noundef nonnull align 8 dereferenceable(16) %3)
  %5 = call noundef i64 @_ZNK4llvm15SmallVectorBaseIjE4sizeEv(ptr noundef nonnull align 8 dereferenceable(16) %3)
  %6 = getelementptr inbounds ptr, ptr %4, i64 %5
  ret ptr %6
}

; Function Attrs: mustprogress nounwind uwtable
define internal ptr @"_ZN4llvm8for_eachIRNS_11SmallVectorIPN5clang10ParsedAttrELj6EEEZNS2_13AttributePool8takeFromERNS2_20ParsedAttributesViewERS7_E3$_0EET0_OT_SC_"(ptr noundef nonnull align 8 dereferenceable(64) %0, ptr %1) #0 {
  %3 = alloca %class.anon, align 8
  %4 = alloca %class.anon, align 8
  %5 = alloca ptr, align 8
  %6 = alloca %class.anon, align 8
  %7 = getelementptr inbounds nuw %class.anon, ptr %4, i32 0, i32 0
  store ptr %1, ptr %7, align 8
  store ptr %0, ptr %5, align 8
  %8 = load ptr, ptr %5, align 8
  %9 = call noundef ptr @_ZN4llvm9adl_beginIRNS_11SmallVectorIPN5clang10ParsedAttrELj6EEEEEDTclsr10adl_detailE10begin_implclsr3stdE7forwardIT_Efp_EEEOS7_(ptr noundef nonnull align 8 dereferenceable(64) %8)
  %10 = load ptr, ptr %5, align 8
  %11 = call noundef ptr @_ZN4llvm7adl_endIRNS_11SmallVectorIPN5clang10ParsedAttrELj6EEEEEDTclsr10adl_detailE8end_implclsr3stdE7forwardIT_Efp_EEEOS7_(ptr noundef nonnull align 8 dereferenceable(64) %10)
  call void @llvm.memcpy.p0.p0.i64(ptr align 8 %6, ptr align 8 %4, i64 8, i1 false)
  %12 = getelementptr inbounds nuw %class.anon, ptr %6, i32 0, i32 0
  %13 = load ptr, ptr %12, align 8
  %14 = call ptr @"_ZSt8for_eachIPPN5clang10ParsedAttrEZNS0_13AttributePool8takeFromERNS0_20ParsedAttributesViewERS4_E3$_0ET0_T_SA_S9_"(ptr noundef %9, ptr noundef %11, ptr %13)
  %15 = getelementptr inbounds nuw %class.anon, ptr %3, i32 0, i32 0
  store ptr %14, ptr %15, align 8
  %16 = getelementptr inbounds nuw %class.anon, ptr %3, i32 0, i32 0
  %17 = load ptr, ptr %16, align 8
  ret ptr %17
}

; Function Attrs: mustprogress nounwind uwtable
define dso_local void @_ZN5clang13AttributePool8takeFromERNS_20ParsedAttributesViewERS0_(ptr noundef nonnull align 8 dereferenceable(72) %0, ptr noundef nonnull align 8 dereferenceable(72) %1, ptr noundef nonnull align 8 dereferenceable(72) %2) #0 align 2 {
  %4 = alloca ptr, align 8
  %5 = alloca ptr, align 8
  %6 = alloca ptr, align 8
  %7 = alloca %class.anon, align 8
  %8 = alloca %class.anon, align 8
  store ptr %0, ptr %4, align 8
  store ptr %1, ptr %5, align 8
  store ptr %2, ptr %6, align 8
  %9 = load ptr, ptr %4, align 8
  %10 = load ptr, ptr %5, align 8
  %11 = getelementptr inbounds nuw %"class.clang::ParsedAttributesView", ptr %10, i32 0, i32 1
  %12 = getelementptr inbounds nuw %class.anon, ptr %7, i32 0, i32 0
  %13 = load ptr, ptr %6, align 8
  store ptr %13, ptr %12, align 8
  %14 = getelementptr inbounds nuw %class.anon, ptr %7, i32 0, i32 0
  %15 = load ptr, ptr %14, align 8
  %16 = call ptr @"_ZN4llvm8for_eachIRNS_11SmallVectorIPN5clang10ParsedAttrELj6EEEZNS2_13AttributePool8takeFromERNS2_20ParsedAttributesViewERS7_E3$_0EET0_OT_SC_"(ptr noundef nonnull align 8 dereferenceable(64) %11, ptr %15)
  %17 = getelementptr inbounds nuw %class.anon, ptr %8, i32 0, i32 0
  store ptr %16, ptr %17, align 8
  %18 = getelementptr inbounds nuw %"class.clang::AttributePool", ptr %9, i32 0, i32 1
  %19 = getelementptr inbounds nuw %"class.clang::AttributePool", ptr %9, i32 0, i32 1
  %20 = call noundef ptr @_ZN4llvm25SmallVectorTemplateCommonIPN5clang10ParsedAttrEvE3endEv(ptr noundef nonnull align 8 dereferenceable(16) %19)
  %21 = load ptr, ptr %5, align 8
  %22 = getelementptr inbounds nuw %"class.clang::ParsedAttributesView", ptr %21, i32 0, i32 1
  %23 = call noundef ptr @_ZN4llvm25SmallVectorTemplateCommonIPN5clang10ParsedAttrEvE5beginEv(ptr noundef nonnull align 8 dereferenceable(16) %22)
  %24 = load ptr, ptr %5, align 8
  %25 = getelementptr inbounds nuw %"class.clang::ParsedAttributesView", ptr %24, i32 0, i32 1
  %26 = call noundef ptr @_ZN4llvm25SmallVectorTemplateCommonIPN5clang10ParsedAttrEvE3endEv(ptr noundef nonnull align 8 dereferenceable(16) %25)
  %27 = call noundef ptr @_ZN4llvm15SmallVectorImplIPN5clang10ParsedAttrEE6insertIPS3_vEES6_S6_T_S7_(ptr noundef nonnull align 8 dereferenceable(16) %18, ptr noundef %20, ptr noundef %23, ptr noundef %26)
  ret void
}