; Function Attrs: mustprogress nounwind uwtable
define dso_local void @_ZN5clang13AttributePool8takeFromERNS_20ParsedAttributesViewERS0_(ptr noundef nonnull align 8 dereferenceable(72) %0, ptr noundef nonnull align 8 dereferenceable(72) %1, ptr noundef nonnull align 8 dereferenceable(72) %2) local_unnamed_addr #0 align 2 {
  %4 = getelementptr inbounds nuw i8, ptr %1, i64 8
  %5 = load ptr, ptr %4, align 8
  %6 = tail call noundef i64 @_ZNK4llvm15SmallVectorBaseIjE4sizeEv(ptr noundef nonnull align 8 dereferenceable(16) %4) #18
  %7 = getelementptr inbounds ptr, ptr %5, i64 %6
  %.not4.i.i = icmp eq i64 %6, 0
  br i1 %.not4.i.i, label %"_ZN4llvm8for_eachIRNS_11SmallVectorIPN5clang10ParsedAttrELj6EEEZNS2_13AttributePool8takeFromERNS2_20ParsedAttributesViewERS7_E3$_0EET0_OT_SC_.exit", label %.lr.ph.i.i

.lr.ph.i.i:                                       ; preds = %3, %.lr.ph.i.i
  %.05.i.i = phi ptr [ %9, %.lr.ph.i.i ], [ %5, %3 ]
  %8 = load ptr, ptr %.05.i.i, align 8
  tail call void @_ZN5clang13AttributePool6removeEPNS_10ParsedAttrE(ptr noundef nonnull align 8 dereferenceable(72) %2, ptr noundef %8)
  %9 = getelementptr inbounds i8, ptr %.05.i.i, i64 8
  %.not.i.i = icmp eq ptr %9, %7
  br i1 %.not.i.i, label %"_ZN4llvm8for_eachIRNS_11SmallVectorIPN5clang10ParsedAttrELj6EEEZNS2_13AttributePool8takeFromERNS2_20ParsedAttributesViewERS7_E3$_0EET0_OT_SC_.exit", label %.lr.ph.i.i, !llvm.loop !8

"_ZN4llvm8for_eachIRNS_11SmallVectorIPN5clang10ParsedAttrELj6EEEZNS2_13AttributePool8takeFromERNS2_20ParsedAttributesViewERS7_E3$_0EET0_OT_SC_.exit": ; preds = %.lr.ph.i.i, %3
  %10 = getelementptr inbounds nuw i8, ptr %0, i64 8
  %11 = load ptr, ptr %10, align 8
  %12 = tail call noundef i64 @_ZNK4llvm15SmallVectorBaseIjE4sizeEv(ptr noundef nonnull align 8 dereferenceable(16) %10) #18
  %13 = getelementptr inbounds ptr, ptr %11, i64 %12
  %14 = load ptr, ptr %4, align 8
  %15 = tail call noundef i64 @_ZNK4llvm15SmallVectorBaseIjE4sizeEv(ptr noundef nonnull align 8 dereferenceable(16) %4) #18
  %16 = getelementptr inbounds ptr, ptr %14, i64 %15
  %17 = tail call noundef ptr @_ZN4llvm15SmallVectorImplIPN5clang10ParsedAttrEE6insertIPS3_vEES6_S6_T_S7_(ptr noundef nonnull align 8 dereferenceable(16) %10, ptr noundef %13, ptr noundef %14, ptr noundef %16)
  ret void
}